target datalayout = "e-m:e-p270:32:32-p271:32:32-p272:64:64-i64:64-i128:128-f80:128-n8:16:32:64-S128"
target triple = "x86_64-pc-linux-gnu"

%struct.Intb_Man_t_ = type { ptr, ptr, i32, i32, i32, i32, i32, i32, i32, ptr, ptr, ptr, ptr, ptr, ptr, ptr, ptr, i32, i32, ptr, ptr, ptr, i32, i32, i64, i64, i64 }
%struct.Sto_Man_t_ = type { i32, i32, i32, i32, ptr, ptr, ptr, i32, i32, ptr }
%struct.Sto_Cls_t_ = type { ptr, ptr, ptr, i32, i32, [0 x i32] }
%struct.Vec_Int_t_ = type { i32, i32, ptr }

; Function Attrs: inlinehint nounwind uwtable
define internal i32 @Vec_IntEntry(ptr noundef %0, i32 noundef %1) #4 {
  %3 = alloca ptr, align 8
  %4 = alloca i32, align 4
  store ptr %0, ptr %3, align 8, !tbaa !41
  store i32 %1, ptr %4, align 4, !tbaa !23
  %5 = load ptr, ptr %3, align 8, !tbaa !41
  %6 = getelementptr inbounds nuw %struct.Vec_Int_t_, ptr %5, i32 0, i32 2
  %7 = load ptr, ptr %6, align 8, !tbaa !44
  %8 = load i32, ptr %4, align 4, !tbaa !23
  %9 = sext i32 %8 to i64
  %10 = getelementptr inbounds i32, ptr %7, i64 %9
  %11 = load i32, ptr %10, align 4, !tbaa !23
  ret i32 %11
}

; Function Attrs: inlinehint nounwind uwtable
define internal i32 @Vec_IntSize(ptr noundef %0) #4 {
  %2 = alloca ptr, align 8
  store ptr %0, ptr %2, align 8, !tbaa !41
  %3 = load ptr, ptr %2, align 8, !tbaa !41
  %4 = getelementptr inbounds nuw %struct.Vec_Int_t_, ptr %3, i32 0, i32 1
  %5 = load i32, ptr %4, align 4, !tbaa !42
  ret i32 %5
}

; Function Attrs: inlinehint nounwind uwtable
define internal i32 @lit_var(i32 noundef %0) #4 {
  %2 = alloca i32, align 4
  store i32 %0, ptr %2, align 4, !tbaa !23
  %3 = load i32, ptr %2, align 4, !tbaa !23
  %4 = ashr i32 %3, 1
  ret i32 %4
}

; Function Attrs: nounwind uwtable
define i32 @Intb_ManGlobalVars(ptr noundef %0) #0 {
  %2 = alloca ptr, align 8
  %3 = alloca ptr, align 8
  %4 = alloca i32, align 4
  %5 = alloca i32, align 4
  %6 = alloca i32, align 4
  %7 = alloca i32, align 4
  store ptr %0, ptr %2, align 8, !tbaa !3
  call void @llvm.lifetime.start.p0(i64 8, ptr %3) #9
  call void @llvm.lifetime.start.p0(i64 4, ptr %4) #9
  store i32 -100000000, ptr %4, align 4, !tbaa !23
  call void @llvm.lifetime.start.p0(i64 4, ptr %5) #9
  call void @llvm.lifetime.start.p0(i64 4, ptr %6) #9
  call void @llvm.lifetime.start.p0(i64 4, ptr %7) #9
  %8 = load ptr, ptr %2, align 8, !tbaa !3
  %9 = getelementptr inbounds nuw %struct.Intb_Man_t_, ptr %8, i32 0, i32 0
  %10 = load ptr, ptr %9, align 8, !tbaa !24
  %11 = getelementptr inbounds nuw %struct.Sto_Man_t_, ptr %10, i32 0, i32 4
  %12 = load ptr, ptr %11, align 8, !tbaa !25
  store ptr %12, ptr %3, align 8, !tbaa !28
  br label %13

13:                                               ; preds = %58, %1
  %14 = load ptr, ptr %3, align 8, !tbaa !28
  %15 = icmp ne ptr %14, null
  br i1 %15, label %16, label %23

16:                                               ; preds = %13
  %17 = load ptr, ptr %3, align 8, !tbaa !28
  %18 = getelementptr inbounds nuw %struct.Sto_Cls_t_, ptr %17, i32 0, i32 4
  %19 = load i32, ptr %18, align 4
  %20 = lshr i32 %19, 1
  %21 = and i32 %20, 1
  %22 = icmp ne i32 %21, 0
  br label %23

23:                                               ; preds = %16, %13
  %24 = phi i1 [ false, %13 ], [ %22, %16 ]
  br i1 %24, label %25, label %62

25:                                               ; preds = %23
  %26 = load ptr, ptr %3, align 8, !tbaa !28
  %27 = getelementptr inbounds nuw %struct.Sto_Cls_t_, ptr %26, i32 0, i32 4
  %28 = load i32, ptr %27, align 4
  %29 = and i32 %28, 1
  %30 = icmp ne i32 %29, 0
  br i1 %30, label %32, label %31

31:                                               ; preds = %25
  br label %62

32:                                               ; preds = %25
  store i32 0, ptr %7, align 4, !tbaa !23
  br label %33

33:                                               ; preds = %54, %32
  %34 = load i32, ptr %7, align 4, !tbaa !23
  %35 = load ptr, ptr %3, align 8, !tbaa !28
  %36 = getelementptr inbounds nuw %struct.Sto_Cls_t_, ptr %35, i32 0, i32 4
  %37 = load i32, ptr %36, align 4
  %38 = lshr i32 %37, 3
  %39 = and i32 %38, 16777215
  %40 = icmp slt i32 %34, %39
  br i1 %40, label %41, label %57

41:                                               ; preds = %33
  %42 = load ptr, ptr %2, align 8, !tbaa !3
  %43 = getelementptr inbounds nuw %struct.Intb_Man_t_, ptr %42, i32 0, i32 15
  %44 = load ptr, ptr %43, align 8, !tbaa !29
  %45 = load ptr, ptr %3, align 8, !tbaa !28
  %46 = getelementptr inbounds nuw %struct.Sto_Cls_t_, ptr %45, i32 0, i32 5
  %47 = load i32, ptr %7, align 4, !tbaa !23
  %48 = sext i32 %47 to i64
  %49 = getelementptr inbounds [0 x i32], ptr %46, i64 0, i64 %48
  %50 = load i32, ptr %49, align 4, !tbaa !23
  %51 = call i32 @lit_var(i32 noundef %50)
  %52 = sext i32 %51 to i64
  %53 = getelementptr inbounds i32, ptr %44, i64 %52
  store i32 1, ptr %53, align 4, !tbaa !23
  br label %54

54:                                               ; preds = %41
  %55 = load i32, ptr %7, align 4, !tbaa !23
  %56 = add nsw i32 %55, 1
  store i32 %56, ptr %7, align 4, !tbaa !23
  br label %33, !llvm.loop !30

57:                                               ; preds = %33
  br label %58

58:                                               ; preds = %57
  %59 = load ptr, ptr %3, align 8, !tbaa !28
  %60 = getelementptr inbounds nuw %struct.Sto_Cls_t_, ptr %59, i32 0, i32 0
  %61 = load ptr, ptr %60, align 8, !tbaa !32
  store ptr %61, ptr %3, align 8, !tbaa !28
  br label %13, !llvm.loop !34

62:                                               ; preds = %31, %23
  store i32 0, ptr %6, align 4, !tbaa !23
  %63 = load ptr, ptr %2, align 8, !tbaa !3
  %64 = getelementptr inbounds nuw %struct.Intb_Man_t_, ptr %63, i32 0, i32 0
  %65 = load ptr, ptr %64, align 8, !tbaa !24
  %66 = getelementptr inbounds nuw %struct.Sto_Man_t_, ptr %65, i32 0, i32 4
  %67 = load ptr, ptr %66, align 8, !tbaa !25
  store ptr %67, ptr %3, align 8, !tbaa !28
  br label %68

68:                                               ; preds = %127, %62
  %69 = load ptr, ptr %3, align 8, !tbaa !28
  %70 = icmp ne ptr %69, null
  br i1 %70, label %71, label %78

71:                                               ; preds = %68
  %72 = load ptr, ptr %3, align 8, !tbaa !28
  %73 = getelementptr inbounds nuw %struct.Sto_Cls_t_, ptr %72, i32 0, i32 4
  %74 = load i32, ptr %73, align 4
  %75 = lshr i32 %74, 1
  %76 = and i32 %75, 1
  %77 = icmp ne i32 %76, 0
  br label %78

78:                                               ; preds = %71, %68
  %79 = phi i1 [ false, %68 ], [ %77, %71 ]
  br i1 %79, label %80, label %131

80:                                               ; preds = %78
  %81 = load ptr, ptr %3, align 8, !tbaa !28
  %82 = getelementptr inbounds nuw %struct.Sto_Cls_t_, ptr %81, i32 0, i32 4
  %83 = load i32, ptr %82, align 4
  %84 = and i32 %83, 1
  %85 = icmp ne i32 %84, 0
  br i1 %85, label %86, label %87

86:                                               ; preds = %80
  br label %127

87:                                               ; preds = %80
  store i32 0, ptr %7, align 4, !tbaa !23
  br label %88

88:                                               ; preds = %123, %87
  %89 = load i32, ptr %7, align 4, !tbaa !23
  %90 = load ptr, ptr %3, align 8, !tbaa !28
  %91 = getelementptr inbounds nuw %struct.Sto_Cls_t_, ptr %90, i32 0, i32 4
  %92 = load i32, ptr %91, align 4
  %93 = lshr i32 %92, 3
  %94 = and i32 %93, 16777215
  %95 = icmp slt i32 %89, %94
  br i1 %95, label %96, label %126

96:                                               ; preds = %88
  %97 = load ptr, ptr %3, align 8, !tbaa !28
  %98 = getelementptr inbounds nuw %struct.Sto_Cls_t_, ptr %97, i32 0, i32 5
  %99 = load i32, ptr %7, align 4, !tbaa !23
  %100 = sext i32 %99 to i64
  %101 = getelementptr inbounds [0 x i32], ptr %98, i64 0, i64 %100
  %102 = load i32, ptr %101, align 4, !tbaa !23
  %103 = call i32 @lit_var(i32 noundef %102)
  store i32 %103, ptr %5, align 4, !tbaa !23
  %104 = load ptr, ptr %2, align 8, !tbaa !3
  %105 = getelementptr inbounds nuw %struct.Intb_Man_t_, ptr %104, i32 0, i32 15
  %106 = load ptr, ptr %105, align 8, !tbaa !29
  %107 = load i32, ptr %5, align 4, !tbaa !23
  %108 = sext i32 %107 to i64
  %109 = getelementptr inbounds i32, ptr %106, i64 %108
  %110 = load i32, ptr %109, align 4, !tbaa !23
  %111 = icmp eq i32 %110, 1
  br i1 %111, label %112, label %122

112:                                              ; preds = %96
  %113 = load i32, ptr %6, align 4, !tbaa !23
  %114 = add nsw i32 %113, 1
  store i32 %114, ptr %6, align 4, !tbaa !23
  %115 = load i32, ptr %4, align 4, !tbaa !23
  %116 = load ptr, ptr %2, align 8, !tbaa !3
  %117 = getelementptr inbounds nuw %struct.Intb_Man_t_, ptr %116, i32 0, i32 15
  %118 = load ptr, ptr %117, align 8, !tbaa !29
  %119 = load i32, ptr %5, align 4, !tbaa !23
  %120 = sext i32 %119 to i64
  %121 = getelementptr inbounds i32, ptr %118, i64 %120
  store i32 %115, ptr %121, align 4, !tbaa !23
  br label %122

122:                                              ; preds = %112, %96
  br label %123

123:                                              ; preds = %122
  %124 = load i32, ptr %7, align 4, !tbaa !23
  %125 = add nsw i32 %124, 1
  store i32 %125, ptr %7, align 4, !tbaa !23
  br label %88, !llvm.loop !35

126:                                              ; preds = %88
  br label %127

127:                                              ; preds = %126, %86
  %128 = load ptr, ptr %3, align 8, !tbaa !28
  %129 = getelementptr inbounds nuw %struct.Sto_Cls_t_, ptr %128, i32 0, i32 0
  %130 = load ptr, ptr %129, align 8, !tbaa !32
  store ptr %130, ptr %3, align 8, !tbaa !28
  br label %68, !llvm.loop !36

131:                                              ; preds = %78
  store i32 0, ptr %6, align 4, !tbaa !23
  store i32 0, ptr %7, align 4, !tbaa !23
  br label %132

132:                                              ; preds = %158, %131
  %133 = load i32, ptr %7, align 4, !tbaa !23
  %134 = load ptr, ptr %2, align 8, !tbaa !3
  %135 = getelementptr inbounds nuw %struct.Intb_Man_t_, ptr %134, i32 0, i32 1
  %136 = load ptr, ptr %135, align 8, !tbaa !37
  %137 = call i32 @Vec_IntSize(ptr noundef %136)
  %138 = icmp slt i32 %133, %137
  br i1 %138, label %139, label %145

139:                                              ; preds = %132
  %140 = load ptr, ptr %2, align 8, !tbaa !3
  %141 = getelementptr inbounds nuw %struct.Intb_Man_t_, ptr %140, i32 0, i32 1
  %142 = load ptr, ptr %141, align 8, !tbaa !37
  %143 = load i32, ptr %7, align 4, !tbaa !23
  %144 = call i32 @Vec_IntEntry(ptr noundef %142, i32 noundef %143)
  store i32 %144, ptr %5, align 4, !tbaa !23
  br label %145

145:                                              ; preds = %139, %132
  %146 = phi i1 [ false, %132 ], [ true, %139 ]
  br i1 %146, label %147, label %161

147:                                              ; preds = %145
  %148 = load i32, ptr %6, align 4, !tbaa !23
  %149 = add nsw i32 %148, 1
  store i32 %149, ptr %6, align 4, !tbaa !23
  %150 = add nsw i32 1, %148
  %151 = sub nsw i32 0, %150
  %152 = load ptr, ptr %2, align 8, !tbaa !3
  %153 = getelementptr inbounds nuw %struct.Intb_Man_t_, ptr %152, i32 0, i32 15
  %154 = load ptr, ptr %153, align 8, !tbaa !29
  %155 = load i32, ptr %5, align 4, !tbaa !23
  %156 = sext i32 %155 to i64
  %157 = getelementptr inbounds i32, ptr %154, i64 %156
  store i32 %151, ptr %157, align 4, !tbaa !23
  br label %158

158:                                              ; preds = %147
  %159 = load i32, ptr %7, align 4, !tbaa !23
  %160 = add nsw i32 %159, 1
  store i32 %160, ptr %7, align 4, !tbaa !23
  br label %132, !llvm.loop !38

161:                                              ; preds = %145
  store i32 0, ptr %7, align 4, !tbaa !23
  br label %162

162:                                              ; preds = %171, %161
  %163 = load i32, ptr %7, align 4, !tbaa !23
  %164 = load ptr, ptr %2, align 8, !tbaa !3
  %165 = getelementptr inbounds nuw %struct.Intb_Man_t_, ptr %164, i32 0, i32 0
  %166 = load ptr, ptr %165, align 8, !tbaa !24
  %167 = getelementptr inbounds nuw %struct.Sto_Man_t_, ptr %166, i32 0, i32 0
  %168 = load i32, ptr %167, align 8, !tbaa !39
  %169 = icmp slt i32 %163, %168
  br i1 %169, label %170, label %174

170:                                              ; preds = %162
  br label %171

171:                                              ; preds = %170
  %172 = load i32, ptr %7, align 4, !tbaa !23
  %173 = add nsw i32 %172, 1
  store i32 %173, ptr %7, align 4, !tbaa !23
  br label %162, !llvm.loop !40

174:                                              ; preds = %162
  %175 = load i32, ptr %6, align 4, !tbaa !23
  call void @llvm.lifetime.end.p0(i64 4, ptr %7) #9
  call void @llvm.lifetime.end.p0(i64 4, ptr %6) #9
  call void @llvm.lifetime.end.p0(i64 4, ptr %5) #9
  call void @llvm.lifetime.end.p0(i64 4, ptr %4) #9
  call void @llvm.lifetime.end.p0(i64 8, ptr %3) #9
  ret i32 %175
}